target datalayout = "e-m:e-p270:32:32-p271:32:32-p272:64:64-i64:64-i128:128-f80:128-n8:16:32:64-S128"
target triple = "x86_64-pc-linux-gnu"

@.str.678 = private unnamed_addr constant [9 x i8] c"No limit\00", align 1

; Function Attrs: null_pointer_is_valid sspstrong uwtable
define internal i32 @add_max_storage(ptr noundef %0, i32 noundef %1, i32 noundef %2, ptr noundef %3, ptr noundef %4, i32 noundef %5, i32 noundef %6, ptr noundef %7) #0 {
  %9 = alloca ptr, align 8
  %10 = alloca i32, align 4
  %11 = alloca i32, align 4
  %12 = alloca ptr, align 8
  %13 = alloca ptr, align 8
  %14 = alloca i32, align 4
  %15 = alloca i32, align 4
  %16 = alloca ptr, align 8
  %17 = alloca i32, align 4
  store ptr %0, ptr %9, align 8
  store i32 %1, ptr %10, align 4
  store i32 %2, ptr %11, align 4
  store ptr %3, ptr %12, align 8
  store ptr %4, ptr %13, align 8
  store i32 %5, ptr %14, align 4
  store i32 %6, ptr %15, align 4
  store ptr %7, ptr %16, align 8
  call void @llvm.lifetime.start.p0(i64 4, ptr %17) #7
  %18 = load ptr, ptr %9, align 8
  %19 = load i32, ptr %10, align 4
  %20 = call i32 @tvb_get_letohl(ptr noundef %18, i32 noundef %19)
  store i32 %20, ptr %17, align 4
  %21 = load i32, ptr %17, align 4
  %22 = icmp eq i32 %21, -1
  br i1 %22, label %23, label %30

23:                                               ; preds = %8
  %24 = load ptr, ptr %13, align 8
  %25 = load i32, ptr %15, align 4
  %26 = load ptr, ptr %9, align 8
  %27 = load i32, ptr %10, align 4
  %28 = load i32, ptr %17, align 4
  %29 = call ptr (ptr, i32, ptr, i32, i32, i32, ptr, ...) @proto_tree_add_uint_format(ptr noundef %24, i32 noundef %25, ptr noundef %26, i32 noundef %27, i32 noundef 4, i32 noundef %28, ptr noundef @.str.678)
  br label %37

30:                                               ; preds = %8
  %31 = load ptr, ptr %13, align 8
  %32 = load i32, ptr %15, align 4
  %33 = load ptr, ptr %9, align 8
  %34 = load i32, ptr %10, align 4
  %35 = load i32, ptr %17, align 4
  %36 = call ptr @proto_tree_add_uint(ptr noundef %31, i32 noundef %32, ptr noundef %33, i32 noundef %34, i32 noundef 4, i32 noundef %35)
  br label %37

37:                                               ; preds = %30, %23
  %38 = load i32, ptr %10, align 4
  %39 = add i32 %38, 4
  store i32 %39, ptr %10, align 4
  %40 = load i32, ptr %10, align 4
  call void @llvm.lifetime.end.p0(i64 4, ptr %17) #7
  ret i32 %40
}