; Function Attrs: null_pointer_is_valid sspstrong uwtable
define internal noundef i32 @add_max_storage(ptr noundef %0, i32 noundef %1, i32 %2, ptr readnone captures(none) %3, ptr noundef %4, i32 %5, i32 noundef %6, ptr readnone captures(none) %7) #0 {
  %9 = tail call i32 @tvb_get_letohl(ptr noundef %0, i32 noundef %1)
  %10 = icmp eq i32 %9, -1
  br i1 %10, label %11, label %13

11:                                               ; preds = %8
  %12 = tail call ptr (ptr, i32, ptr, i32, i32, i32, ptr, ...) @proto_tree_add_uint_format(ptr noundef %4, i32 noundef %6, ptr noundef %0, i32 noundef %1, i32 noundef 4, i32 noundef -1, ptr noundef nonnull @.str.678)
  br label %15

13:                                               ; preds = %8
  %14 = tail call ptr @proto_tree_add_uint(ptr noundef %4, i32 noundef %6, ptr noundef %0, i32 noundef %1, i32 noundef 4, i32 noundef %9)
  br label %15

15:                                               ; preds = %13, %11
  %16 = add i32 %1, 4
  ret i32 %16
}